target datalayout = "e-m:e-p270:32:32-p271:32:32-p272:64:64-i64:64-i128:128-f80:128-n8:16:32:64-S128"
target triple = "x86_64-pc-linux-gnu"

%struct.WOLFSSL = type <{ ptr, ptr, ptr, ptr, [48 x i8], [48 x i8], ptr, ptr, ptr, ptr, ptr, ptr, ptr, ptr, ptr, ptr, ptr, ptr, ptr, i32, [4 x i8], %struct.WOLFSSL_CIPHER, ptr, %struct.Ciphers, %struct.Ciphers, [8 x i8], %struct.Buffers, ptr, ptr, %struct.WOLFSSL_ALERT_HISTORY, %struct.WOLFSSL_ALERT, i32, i32, i32, i32, i32, i32, i32, i16, [2 x i8], i32, i8, %struct.RecordLayerHeader, %struct.MsgsReceived, %struct.ProtocolVersion, %struct.ProtocolVersion, %struct.CipherSpecs, [2 x i8], %struct.Keys, %struct.Options, ptr, i8, i8, i16, [10 x i16], i8, i8, i16, i16, [38 x i8], i32, i32, [4 x i8], ptr, i8, i8, [6 x i8], ptr, ptr, i16, i8, i8, i32, i8, [3 x i8], i32, %struct.OneTimeAuth, ptr }>
%struct.WOLFSSL_CIPHER = type { i8, i8, ptr }
%struct.Ciphers = type { ptr, ptr, ptr, ptr, i8, i8 }
%struct.Buffers = type { %struct.bufferStatic, %struct.bufferStatic, %struct.WOLFSSL_BUFFER_INFO, %struct.WOLFSSL_BUFFER_INFO, %struct.WOLFSSL_BUFFER_INFO, %struct.WOLFSSL_BUFFER_INFO, i32, i32, i8, i8, i8, i8, %struct.WOLFSSL_BUFFER_INFO, %struct.WOLFSSL_BUFFER_INFO, %struct.WOLFSSL_BUFFER_INFO, %struct.WOLFSSL_BUFFER_INFO, ptr, ptr, ptr, i8, i8, i32, i32, ptr, i32, [1 x ptr] }
%struct.bufferStatic = type { [5 x i8], ptr, i32, i32, i32, i8, i8 }
%struct.WOLFSSL_BUFFER_INFO = type { ptr, i32 }
%struct.WOLFSSL_ALERT_HISTORY = type { %struct.WOLFSSL_ALERT, %struct.WOLFSSL_ALERT }
%struct.WOLFSSL_ALERT = type { i32, i32 }
%struct.RecordLayerHeader = type { i8, i8, i8, [2 x i8] }
%struct.MsgsReceived = type { i32 }
%struct.ProtocolVersion = type { i8, i8 }
%struct.CipherSpecs = type { i16, i16, i16, i16, i8, i8, i8, i8, i8, i8, i8, i8 }
%struct.Keys = type { [64 x i8], [64 x i8], [32 x i8], [32 x i8], [16 x i8], [16 x i8], [8 x i8], [12 x i8], [12 x i8], i32, i32, i32, i32, i32, i32, i8, i8, i8, i8 }
%struct.Options = type { i64, i64, i8, i8, i8, i8, i8, i8, i8, i8, i8, i8, i8, i8, i8, i8, i8, i8, i8, i8, i8, i8, i8, i16, i16, i16, i16, i16, i8 }
%struct.OneTimeAuth = type { ptr, i8 }

; Function Attrs: inlinehint nounwind uwtable
define internal void @ato16(ptr noundef %0, ptr noundef %1) #5 {
  %3 = alloca ptr, align 8
  %4 = alloca ptr, align 8
  store ptr %0, ptr %3, align 8, !tbaa !8
  store ptr %1, ptr %4, align 8, !tbaa !122
  %5 = load ptr, ptr %3, align 8, !tbaa !8
  %6 = getelementptr inbounds i8, ptr %5, i64 0
  %7 = load i8, ptr %6, align 1, !tbaa !55
  %8 = zext i8 %7 to i32
  %9 = shl i32 %8, 8
  %10 = load ptr, ptr %3, align 8, !tbaa !8
  %11 = getelementptr inbounds i8, ptr %10, i64 1
  %12 = load i8, ptr %11, align 1, !tbaa !55
  %13 = zext i8 %12 to i32
  %14 = or i32 %9, %13
  %15 = trunc i32 %14 to i16
  %16 = load ptr, ptr %4, align 8, !tbaa !122
  store i16 %15, ptr %16, align 2, !tbaa !73
  ret void
}

; Function Attrs: nounwind uwtable
define i32 @TLSX_ParseVersion(ptr noundef %0, ptr noundef %1, i16 noundef zeroext %2, i8 noundef zeroext %3, ptr noundef %4) #0 {
  %6 = alloca ptr, align 8
  %7 = alloca ptr, align 8
  %8 = alloca i16, align 2
  %9 = alloca i8, align 1
  %10 = alloca ptr, align 8
  %11 = alloca i32, align 4
  %12 = alloca i32, align 4
  %13 = alloca i16, align 2
  %14 = alloca i16, align 2
  %15 = alloca i32, align 4
  store ptr %0, ptr %6, align 8, !tbaa !3
  store ptr %1, ptr %7, align 8, !tbaa !8
  store i16 %2, ptr %8, align 2, !tbaa !73
  store i8 %3, ptr %9, align 1, !tbaa !55
  store ptr %4, ptr %10, align 8, !tbaa !10
  call void @llvm.lifetime.start.p0(i64 4, ptr %11) #8
  store i32 0, ptr %11, align 4, !tbaa !12
  call void @llvm.lifetime.start.p0(i64 4, ptr %12) #8
  store i32 0, ptr %12, align 4, !tbaa !12
  %16 = load ptr, ptr %10, align 8, !tbaa !10
  store i32 0, ptr %16, align 4, !tbaa !12
  br label %17

17:                                               ; preds = %80, %5
  %18 = load i32, ptr %12, align 4, !tbaa !12
  %19 = load i16, ptr %8, align 2, !tbaa !73
  %20 = zext i16 %19 to i32
  %21 = icmp slt i32 %18, %20
  br i1 %21, label %22, label %81

22:                                               ; preds = %17
  call void @llvm.lifetime.start.p0(i64 2, ptr %13) #8
  call void @llvm.lifetime.start.p0(i64 2, ptr %14) #8
  %23 = load i32, ptr %12, align 4, !tbaa !12
  %24 = add nsw i32 %23, 4
  %25 = load i16, ptr %8, align 2, !tbaa !73
  %26 = zext i16 %25 to i32
  %27 = icmp sgt i32 %24, %26
  br i1 %27, label %28, label %29

28:                                               ; preds = %22
  store i32 -328, ptr %11, align 4, !tbaa !12
  store i32 3, ptr %15, align 4
  br label %78

29:                                               ; preds = %22
  %30 = load ptr, ptr %7, align 8, !tbaa !8
  %31 = load i32, ptr %12, align 4, !tbaa !12
  %32 = sext i32 %31 to i64
  %33 = getelementptr inbounds i8, ptr %30, i64 %32
  call void @ato16(ptr noundef %33, ptr noundef %13)
  %34 = load i32, ptr %12, align 4, !tbaa !12
  %35 = add nsw i32 %34, 2
  store i32 %35, ptr %12, align 4, !tbaa !12
  %36 = load ptr, ptr %7, align 8, !tbaa !8
  %37 = load i32, ptr %12, align 4, !tbaa !12
  %38 = sext i32 %37 to i64
  %39 = getelementptr inbounds i8, ptr %36, i64 %38
  call void @ato16(ptr noundef %39, ptr noundef %14)
  %40 = load i32, ptr %12, align 4, !tbaa !12
  %41 = add nsw i32 %40, 2
  store i32 %41, ptr %12, align 4, !tbaa !12
  %42 = load i32, ptr %12, align 4, !tbaa !12
  %43 = load i16, ptr %14, align 2, !tbaa !73
  %44 = zext i16 %43 to i32
  %45 = add nsw i32 %42, %44
  %46 = load i16, ptr %8, align 2, !tbaa !73
  %47 = zext i16 %46 to i32
  %48 = icmp sgt i32 %45, %47
  br i1 %48, label %49, label %50

49:                                               ; preds = %29
  store i32 -328, ptr %11, align 4, !tbaa !12
  store i32 3, ptr %15, align 4
  br label %78

50:                                               ; preds = %29
  %51 = load i16, ptr %13, align 2, !tbaa !73
  %52 = zext i16 %51 to i32
  %53 = icmp eq i32 %52, 43
  br i1 %53, label %54, label %73

54:                                               ; preds = %50
  %55 = load ptr, ptr %10, align 8, !tbaa !10
  store i32 1, ptr %55, align 4, !tbaa !12
  br label %56

56:                                               ; preds = %54
  br label %57

57:                                               ; preds = %56
  br label %58

58:                                               ; preds = %57
  %59 = load ptr, ptr %6, align 8, !tbaa !3
  %60 = load ptr, ptr %7, align 8, !tbaa !8
  %61 = load i32, ptr %12, align 4, !tbaa !12
  %62 = sext i32 %61 to i64
  %63 = getelementptr inbounds i8, ptr %60, i64 %62
  %64 = load i16, ptr %14, align 2, !tbaa !73
  %65 = load i8, ptr %9, align 1, !tbaa !55
  %66 = load ptr, ptr %6, align 8, !tbaa !3
  %67 = getelementptr inbounds nuw %struct.WOLFSSL, ptr %66, i32 0, i32 44
  %68 = load ptr, ptr %6, align 8, !tbaa !3
  %69 = getelementptr inbounds nuw %struct.WOLFSSL, ptr %68, i32 0, i32 49
  %70 = load ptr, ptr %6, align 8, !tbaa !3
  %71 = getelementptr inbounds nuw %struct.WOLFSSL, ptr %70, i32 0, i32 77
  %72 = call i32 @TLSX_SupportedVersions_Parse(ptr noundef %59, ptr noundef %63, i16 noundef zeroext %64, i8 noundef zeroext %65, ptr noundef %67, ptr noundef %69, ptr noundef %71)
  store i32 %72, ptr %11, align 4, !tbaa !12
  store i32 3, ptr %15, align 4
  br label %78

73:                                               ; preds = %50
  %74 = load i16, ptr %14, align 2, !tbaa !73
  %75 = zext i16 %74 to i32
  %76 = load i32, ptr %12, align 4, !tbaa !12
  %77 = add nsw i32 %76, %75
  store i32 %77, ptr %12, align 4, !tbaa !12
  store i32 0, ptr %15, align 4
  br label %78

78:                                               ; preds = %73, %58, %49, %28
  call void @llvm.lifetime.end.p0(i64 2, ptr %14) #8
  call void @llvm.lifetime.end.p0(i64 2, ptr %13) #8
  %79 = load i32, ptr %15, align 4
  switch i32 %79, label %83 [
    i32 0, label %80
    i32 3, label %81
  ]

80:                                               ; preds = %78
  br label %17, !llvm.loop !221

81:                                               ; preds = %78, %17
  %82 = load i32, ptr %11, align 4, !tbaa !12
  store i32 1, ptr %15, align 4
  call void @llvm.lifetime.end.p0(i64 4, ptr %12) #8
  call void @llvm.lifetime.end.p0(i64 4, ptr %11) #8
  ret i32 %82

83:                                               ; preds = %78
  unreachable
}