; Function Attrs: nounwind uwtable
define range(i32 -394, 1) i32 @TLSX_ParseVersion(ptr noundef %0, ptr noundef readonly captures(none) %1, i16 noundef zeroext %2, i8 noundef zeroext %3, ptr noundef writeonly captures(none) initializes((0, 4)) %4) local_unnamed_addr #0 {
  store i32 0, ptr %4, align 4, !tbaa !3
  %6 = zext i16 %2 to i32
  br label %7

7:                                                ; preds = %24, %5
  %.023 = phi i32 [ 0, %5 ], [ %22, %24 ]
  %8 = icmp slt i32 %.023, %6
  br i1 %8, label %9, label %.thread

9:                                                ; preds = %7
  %10 = add nuw nsw i32 %.023, 4
  %11 = icmp sgt i32 %10, %6
  br i1 %11, label %.thread, label %12

12:                                               ; preds = %9
  %13 = sext i32 %.023 to i64
  %14 = getelementptr i8, ptr %1, i64 %13
  %15 = getelementptr i8, ptr %14, i64 2
  %.val = load i8, ptr %15, align 1, !tbaa !51
  %16 = getelementptr i8, ptr %14, i64 3
  %.val28 = load i8, ptr %16, align 1, !tbaa !51
  %17 = zext i8 %.val to i16
  %18 = shl nuw i16 %17, 8
  %19 = zext i8 %.val28 to i16
  %20 = or disjoint i16 %18, %19
  %21 = zext i16 %20 to i32
  %22 = add nuw nsw i32 %10, %21
  %23 = icmp sgt i32 %22, %6
  br i1 %23, label %.thread, label %24

24:                                               ; preds = %12
  %25 = zext nneg i32 %.023 to i64
  %26 = getelementptr inbounds nuw i8, ptr %1, i64 %25
  %.val29 = load i8, ptr %26, align 1, !tbaa !51
  %27 = zext i8 %.val29 to i16
  %28 = shl nuw i16 %27, 8
  %29 = getelementptr i8, ptr %26, i64 1
  %.val30 = load i8, ptr %29, align 1, !tbaa !51
  %30 = zext i8 %.val30 to i16
  %31 = or disjoint i16 %28, %30
  %32 = icmp eq i16 %31, 43
  br i1 %32, label %33, label %7

33:                                               ; preds = %24
  store i32 1, ptr %4, align 4, !tbaa !3
  %34 = zext nneg i32 %10 to i64
  %35 = getelementptr inbounds nuw i8, ptr %1, i64 %34
  %36 = getelementptr inbounds nuw i8, ptr %0, i64 710
  %37 = getelementptr inbounds nuw i8, ptr %0, i64 1016
  %38 = getelementptr inbounds nuw i8, ptr %0, i64 1224
  %39 = tail call i32 @TLSX_SupportedVersions_Parse(ptr noundef %0, ptr noundef nonnull %35, i16 noundef zeroext %20, i8 noundef zeroext %3, ptr noundef nonnull %36, ptr noundef nonnull %37, ptr noundef nonnull %38)
  br label %.thread

.thread:                                          ; preds = %12, %9, %7, %33
  %.125 = phi i32 [ %39, %33 ], [ -328, %9 ], [ -328, %12 ], [ 0, %7 ]
  ret i32 %.125
}